; Function Attrs: mustprogress nofree norecurse nosync nounwind memory(readwrite, inaccessiblemem: none) uwtable
define noundef range(i32 0, 4) i32 @_ZN6icu_779BytesTrie4nextEi(ptr noundef nonnull align 8 captures(none) dereferenceable(28) %0, i32 noundef %1) local_unnamed_addr #8 align 2 {
  %3 = getelementptr inbounds nuw i8, ptr %0, i64 16
  %4 = load ptr, ptr %3, align 8, !tbaa !11
  %5 = icmp eq ptr %4, null
  br i1 %5, label %_ZN6icu_779BytesTrie8nextImplEPKhi.exit, label %6

6:                                                ; preds = %2
  %7 = lshr i32 %1, 23
  %8 = and i32 %7, 256
  %spec.select = add nsw i32 %8, %1
  %9 = getelementptr inbounds nuw i8, ptr %0, i64 24
  %10 = load i32, ptr %9, align 8, !tbaa !12
  %11 = icmp sgt i32 %10, -1
  %12 = getelementptr inbounds nuw i8, ptr %4, i64 1
  %13 = load i8, ptr %4, align 1, !tbaa !10
  %14 = zext i8 %13 to i32
  br i1 %11, label %15, label %28

15:                                               ; preds = %6
  %16 = icmp eq i32 %spec.select, %14
  br i1 %16, label %17, label %27

17:                                               ; preds = %15
  %18 = add nsw i32 %10, -1
  store i32 %18, ptr %9, align 8, !tbaa !12
  store ptr %12, ptr %3, align 8, !tbaa !11
  %19 = icmp eq i32 %10, 0
  br i1 %19, label %20, label %_ZN6icu_779BytesTrie8nextImplEPKhi.exit

20:                                               ; preds = %17
  %21 = load i8, ptr %12, align 1, !tbaa !10
  %22 = icmp ugt i8 %21, 31
  br i1 %22, label %23, label %_ZN6icu_779BytesTrie8nextImplEPKhi.exit

23:                                               ; preds = %20
  %24 = and i8 %21, 1
  %25 = xor i8 %24, 3
  %26 = zext nneg i8 %25 to i32
  br label %_ZN6icu_779BytesTrie8nextImplEPKhi.exit

27:                                               ; preds = %15
  store ptr null, ptr %3, align 8, !tbaa !11
  br label %_ZN6icu_779BytesTrie8nextImplEPKhi.exit

28:                                               ; preds = %6
  %29 = icmp ult i8 %13, 16
  br i1 %29, label %._crit_edge.i, label %.lr.ph.i

._crit_edge.i:                                    ; preds = %_ZN6icu_779BytesTrie9skipValueEPKhi.exit.i, %28
  %.lcssa39.i = phi ptr [ %12, %28 ], [ %68, %_ZN6icu_779BytesTrie9skipValueEPKhi.exit.i ]
  %.lcssa.i = phi i32 [ %14, %28 ], [ %70, %_ZN6icu_779BytesTrie9skipValueEPKhi.exit.i ]
  %30 = tail call noundef i32 @_ZN6icu_779BytesTrie10branchNextEPKhii(ptr noundef nonnull align 8 dereferenceable(28) %0, ptr noundef nonnull %.lcssa39.i, i32 noundef %.lcssa.i, i32 noundef %spec.select)
  br label %_ZN6icu_779BytesTrie8nextImplEPKhi.exit

.lr.ph.i:                                         ; preds = %28, %_ZN6icu_779BytesTrie9skipValueEPKhi.exit.i
  %31 = phi i32 [ %70, %_ZN6icu_779BytesTrie9skipValueEPKhi.exit.i ], [ %14, %28 ]
  %32 = phi i8 [ %69, %_ZN6icu_779BytesTrie9skipValueEPKhi.exit.i ], [ %13, %28 ]
  %33 = phi ptr [ %68, %_ZN6icu_779BytesTrie9skipValueEPKhi.exit.i ], [ %12, %28 ]
  %.02144.i = phi ptr [ %.122.i, %_ZN6icu_779BytesTrie9skipValueEPKhi.exit.i ], [ %4, %28 ]
  %34 = icmp ult i8 %32, 32
  br i1 %34, label %35, label %50

35:                                               ; preds = %.lr.ph.i
  %36 = getelementptr inbounds nuw i8, ptr %.02144.i, i64 2
  %37 = load i8, ptr %33, align 1, !tbaa !10
  %38 = zext i8 %37 to i32
  %39 = icmp eq i32 %spec.select, %38
  br i1 %39, label %40, label %.loopexit.i

40:                                               ; preds = %35
  %41 = add nsw i32 %31, -17
  store i32 %41, ptr %9, align 8, !tbaa !12
  store ptr %36, ptr %3, align 8, !tbaa !11
  %42 = icmp eq i8 %32, 16
  br i1 %42, label %43, label %_ZN6icu_779BytesTrie8nextImplEPKhi.exit

43:                                               ; preds = %40
  %44 = load i8, ptr %36, align 1, !tbaa !10
  %45 = icmp ugt i8 %44, 31
  br i1 %45, label %46, label %_ZN6icu_779BytesTrie8nextImplEPKhi.exit

46:                                               ; preds = %43
  %47 = and i8 %44, 1
  %48 = xor i8 %47, 3
  %49 = zext nneg i8 %48 to i32
  br label %_ZN6icu_779BytesTrie8nextImplEPKhi.exit

50:                                               ; preds = %.lr.ph.i
  %51 = and i32 %31, 1
  %.not.i = icmp eq i32 %51, 0
  br i1 %.not.i, label %52, label %.loopexit.i

52:                                               ; preds = %50
  %53 = icmp ugt i8 %32, -95
  br i1 %53, label %54, label %_ZN6icu_779BytesTrie9skipValueEPKhi.exit.i

54:                                               ; preds = %52
  %55 = icmp samesign ult i8 %32, -40
  br i1 %55, label %56, label %58

56:                                               ; preds = %54
  %57 = getelementptr inbounds nuw i8, ptr %.02144.i, i64 2
  br label %_ZN6icu_779BytesTrie9skipValueEPKhi.exit.i

58:                                               ; preds = %54
  %59 = icmp samesign ult i8 %32, -4
  br i1 %59, label %60, label %62

60:                                               ; preds = %58
  %61 = getelementptr inbounds nuw i8, ptr %.02144.i, i64 3
  br label %_ZN6icu_779BytesTrie9skipValueEPKhi.exit.i

62:                                               ; preds = %58
  %63 = lshr exact i32 %31, 1
  %64 = and i32 %63, 1
  %65 = zext nneg i32 %64 to i64
  %66 = getelementptr inbounds nuw i8, ptr %33, i64 %65
  %67 = getelementptr inbounds nuw i8, ptr %66, i64 3
  br label %_ZN6icu_779BytesTrie9skipValueEPKhi.exit.i

_ZN6icu_779BytesTrie9skipValueEPKhi.exit.i:       ; preds = %62, %60, %56, %52
  %.122.i = phi ptr [ %57, %56 ], [ %61, %60 ], [ %67, %62 ], [ %33, %52 ]
  %68 = getelementptr inbounds nuw i8, ptr %.122.i, i64 1
  %69 = load i8, ptr %.122.i, align 1, !tbaa !10
  %70 = zext i8 %69 to i32
  %71 = icmp ult i8 %69, 16
  br i1 %71, label %._crit_edge.i, label %.lr.ph.i

.loopexit.i:                                      ; preds = %50, %35
  store ptr null, ptr %3, align 8, !tbaa !11
  br label %_ZN6icu_779BytesTrie8nextImplEPKhi.exit

_ZN6icu_779BytesTrie8nextImplEPKhi.exit:          ; preds = %.loopexit.i, %46, %43, %40, %._crit_edge.i, %27, %17, %20, %23, %2
  %.0 = phi i32 [ 0, %2 ], [ 0, %27 ], [ %26, %23 ], [ 1, %20 ], [ 1, %17 ], [ 0, %.loopexit.i ], [ 1, %40 ], [ 1, %43 ], [ %49, %46 ], [ %30, %._crit_edge.i ]
  ret i32 %.0
}